; Function Attrs: inlinehint null_pointer_is_valid sspstrong uwtable
define internal fastcc void @copy_address_wmem(ptr noundef %0, ptr noundef writeonly captures(none) initializes((0, 24)) %1, ptr noundef readonly captures(none) %2) unnamed_addr #7 {
  %4 = load i32, ptr %2, align 8
  %5 = getelementptr inbounds nuw i8, ptr %2, i64 4
  %6 = load i32, ptr %5, align 4
  %7 = getelementptr inbounds nuw i8, ptr %2, i64 8
  %8 = load ptr, ptr %7, align 8
  tail call void @llvm.memset.p0.i64(ptr noundef align 8 dereferenceable(24) %1, i8 0, i64 24, i1 false)
  store i32 %4, ptr %1, align 8
  %9 = icmp eq i32 %6, 0
  br i1 %9, label %alloc_address_wmem.exit, label %10

10:                                               ; preds = %3
  %11 = sext i32 %6 to i64
  %12 = tail call ptr @wmem_memdup(ptr noundef %0, ptr noundef %8, i64 noundef %11) #22
  %13 = getelementptr inbounds nuw i8, ptr %1, i64 16
  store ptr %12, ptr %13, align 8
  %14 = getelementptr inbounds nuw i8, ptr %1, i64 8
  store ptr %12, ptr %14, align 8
  %15 = getelementptr inbounds nuw i8, ptr %1, i64 4
  store i32 %6, ptr %15, align 4
  br label %alloc_address_wmem.exit

alloc_address_wmem.exit:                          ; preds = %3, %10
  ret void
}